(dp0
S'genomes'
p1
(dp2
S'drosophila_melanogaster'
p3
I71
sS'gasterosteus_aculeatus'
p4
I71
sS'rattus_norvegicus'
p5
I71
sS'homo_sapiens'
p6
I71
sS'caenorhabditis_elegans'
p7
I70
sS'mus_musculus'
p8
I71
sS'danio_rerio'
p9
I71
sS'oryza_sativa'
p10
I18
sS'brachypodium_distachyon'
p11
I18
sS'arabidopsis_thaliana'
p12
I18
sS'solanum_lycopersicum'
p13
I18
ss.
