(dp0
S'genomes'
p1
(dp2
S'drosophila_melanogaster'
p3
I68
sS'homo_sapiens'
p4
I68
sS'caenorhabditis_elegans'
p5
I68
sS'mus_musculus'
p6
I68
sS'danio_rerio'
p7
I68
sS'oryza_sativa'
p8
I15
sS'arabidopsis_thaliana'
p9
I15
ssS'promoteromes'
p10
(dp11
g5
S'0'
p12
sg7
g12
sg6
g12
sg4
g12
sg3
g12
ss.