(dp0
S'genomes'
p1
(dp2
S'drosophila_melanogaster'
p3
I70
sS'homo_sapiens'
p4
I70
sS'caenorhabditis_elegans'
p5
I70
sS'mus_musculus'
p6
I70
sS'danio_rerio'
p7
I70
sS'oryza_sativa'
p8
I16
sS'arabidopsis_thaliana'
p9
I16
ssS'promoteromes'
p10
(dp11
g5
S'0'
p12
sg7
g12
sg6
g12
sg3
g12
sg4
g12
ss.