(dp0
S'genomes'
p1
(dp2
S'drosophila_melanogaster'
p3
I70
sS'rattus_norvegicus'
p4
I70
sS'homo_sapiens'
p5
I70
sS'caenorhabditis_elegans'
p6
I70
sS'mus_musculus'
p7
I70
sS'danio_rerio'
p8
I70
sS'oryza_sativa'
p9
I17
sS'brachypodium_distachyon'
p10
I16
sS'arabidopsis_thaliana'
p11
I17
ss.