(dp0
S'genomes'
p1
(dp2
S'drosophila_melanogaster'
p3
I75
sS'gasterosteus_aculeatus'
p4
I75
sS'rattus_norvegicus'
p5
I75
sS'homo_sapiens'
p6
I75
sS'caenorhabditis_elegans'
p7
I70
sS'mus_musculus'
p8
I75
sS'danio_rerio'
p9
I75
sS'oryza_sativa'
p10
I31
sS'brachypodium_distachyon'
p11
I31
sS'arabidopsis_thaliana'
p12
I31
sS'solanum_lycopersicum'
p13
I26
ss.
